; Function Attrs: null_pointer_is_valid sspstrong uwtable
define internal noundef ptr @amqp_message_decode_copy_cb(ptr noundef returned writeonly captures(ret: address, provenance) initializes((0, 4), (8, 16), (24, 48)) %0, ptr noundef readonly captures(none) %1, i64 %2) #0 {
  %4 = load i32, ptr %1, align 8
  store i32 %4, ptr %0, align 8
  %5 = getelementptr inbounds nuw i8, ptr %1, i64 8
  %6 = load ptr, ptr %5, align 8
  %7 = tail call noalias ptr @g_strdup(ptr noundef %6)
  %8 = getelementptr inbounds nuw i8, ptr %0, i64 8
  store ptr %7, ptr %8, align 8
  %9 = getelementptr inbounds nuw i8, ptr %1, i64 24
  %10 = load ptr, ptr %9, align 8
  %11 = tail call noalias ptr @g_strdup(ptr noundef %10)
  %12 = getelementptr inbounds nuw i8, ptr %0, i64 24
  store ptr %11, ptr %12, align 8
  %13 = getelementptr inbounds nuw i8, ptr %1, i64 32
  %14 = load ptr, ptr %13, align 8
  %15 = getelementptr inbounds nuw i8, ptr %0, i64 32
  store ptr %14, ptr %15, align 8
  %16 = getelementptr inbounds nuw i8, ptr %1, i64 40
  %17 = load ptr, ptr %16, align 8
  %18 = tail call noalias ptr @g_strdup(ptr noundef %17)
  %19 = getelementptr inbounds nuw i8, ptr %0, i64 40
  store ptr %18, ptr %19, align 8
  ret ptr %0
}